; Function Attrs: mustprogress nofree norecurse nosync nounwind willreturn memory(read, inaccessiblemem: none) uwtable
define hidden noundef zeroext i1 @_ZNK3opt6maxsmt17is_maxsat_problemERK6vectorI8rationalLb1EjE(ptr noundef nonnull readnone align 8 captures(none) dereferenceable(168) %0, ptr noundef nonnull readonly align 8 captures(none) dereferenceable(8) %1) local_unnamed_addr #15 align 2 {
  %3 = load ptr, ptr %1, align 8, !tbaa !70
  %4 = icmp eq ptr %3, null
  br i1 %4, label %_ZNK8rational6is_oneEv.exit.thread, label %.split

.split:                                           ; preds = %2
  %5 = getelementptr inbounds i8, ptr %3, i64 -4
  %6 = load i32, ptr %5, align 4, !tbaa !54
  %wide.trip.count = zext i32 %6 to i64
  br label %_ZNK6vectorI8rationalLb1EjE4sizeEv.exit

_ZNK6vectorI8rationalLb1EjE4sizeEv.exit:          ; preds = %_ZNK8rational6is_oneEv.exit, %.split
  %indvars.iv = phi i64 [ %indvars.iv.next, %_ZNK8rational6is_oneEv.exit ], [ 0, %.split ]
  %exitcond.not = icmp eq i64 %indvars.iv, %wide.trip.count
  br i1 %exitcond.not, label %_ZNK8rational6is_oneEv.exit.thread, label %7

7:                                                ; preds = %_ZNK6vectorI8rationalLb1EjE4sizeEv.exit
  %8 = getelementptr inbounds nuw %class.rational, ptr %3, i64 %indvars.iv
  %9 = getelementptr inbounds nuw i8, ptr %8, i64 4
  %10 = load i8, ptr %9, align 4
  %11 = and i8 %10, 1
  %12 = icmp eq i8 %11, 0
  %13 = load i32, ptr %8, align 8
  %14 = icmp eq i32 %13, 1
  %15 = select i1 %12, i1 %14, i1 false
  br i1 %15, label %_ZNK8rational6is_oneEv.exit, label %_ZNK8rational6is_oneEv.exit.thread

_ZNK8rational6is_oneEv.exit:                      ; preds = %7
  %16 = getelementptr inbounds nuw i8, ptr %8, i64 16
  %17 = getelementptr inbounds nuw i8, ptr %8, i64 20
  %18 = load i8, ptr %17, align 4
  %19 = and i8 %18, 1
  %20 = icmp eq i8 %19, 0
  %21 = load i32, ptr %16, align 8
  %22 = icmp eq i32 %21, 1
  %23 = select i1 %20, i1 %22, i1 false
  %indvars.iv.next = add nuw nsw i64 %indvars.iv, 1
  br i1 %23, label %_ZNK6vectorI8rationalLb1EjE4sizeEv.exit, label %_ZNK8rational6is_oneEv.exit.thread, !llvm.loop !230

_ZNK8rational6is_oneEv.exit.thread:               ; preds = %_ZNK6vectorI8rationalLb1EjE4sizeEv.exit, %_ZNK8rational6is_oneEv.exit, %7, %2
  %.us-phi = phi i1 [ true, %2 ], [ %exitcond.not, %7 ], [ %exitcond.not, %_ZNK8rational6is_oneEv.exit ], [ %exitcond.not, %_ZNK6vectorI8rationalLb1EjE4sizeEv.exit ]
  ret i1 %.us-phi
}